target datalayout = "e-m:e-p270:32:32-p271:32:32-p272:64:64-i64:64-i128:128-f80:128-n8:16:32:64-S128"
target triple = "x86_64-pc-linux-gnu"

@opt_verbosity = internal global i32 6, align 4
@bio_err = external global ptr, align 8
@.str.351 = private unnamed_addr constant [22 x i8] c"../openssl/apps/cmp.c\00", align 1
@.str.352 = private unnamed_addr constant [6 x i8] c"error\00", align 1
@.str.353 = private unnamed_addr constant [1 x i8] zeroinitializer, align 1
@.str.630 = private unnamed_addr constant [89 x i8] c"%s:%s:%d:CMP %s: Failed to delete %s, which should be done to indicate there is no %s%s\0A\00", align 1
@__func__.delete_file = private unnamed_addr constant [12 x i8] c"delete_file\00", align 1

; Function Attrs: nounwind uwtable
define internal i32 @delete_file(ptr noundef %0, ptr noundef %1) #0 {
  %3 = alloca i32, align 4
  %4 = alloca ptr, align 8
  %5 = alloca ptr, align 8
  store ptr %0, ptr %4, align 8, !tbaa !11
  store ptr %1, ptr %5, align 8, !tbaa !11
  %6 = load ptr, ptr %4, align 8, !tbaa !11
  %7 = icmp eq ptr %6, null
  br i1 %7, label %8, label %9

8:                                                ; preds = %2
  store i32 1, ptr %3, align 4
  br label %28

9:                                                ; preds = %2
  %10 = load ptr, ptr %4, align 8, !tbaa !11
  %11 = call i32 @unlink(ptr noundef %10) #11
  %12 = icmp ne i32 %11, 0
  br i1 %12, label %13, label %27

13:                                               ; preds = %9
  %14 = call ptr @__errno_location() #13
  %15 = load i32, ptr %14, align 4, !tbaa !4
  %16 = icmp ne i32 %15, 2
  br i1 %16, label %17, label %27

17:                                               ; preds = %13
  %18 = load i32, ptr @opt_verbosity, align 4, !tbaa !4
  %19 = icmp sgt i32 3, %18
  br i1 %19, label %20, label %21

20:                                               ; preds = %17
  br label %26

21:                                               ; preds = %17
  %22 = load ptr, ptr @bio_err, align 8, !tbaa !21
  %23 = load ptr, ptr %4, align 8, !tbaa !11
  %24 = load ptr, ptr %5, align 8, !tbaa !11
  %25 = call i32 (ptr, ptr, ...) @BIO_printf(ptr noundef %22, ptr noundef @.str.630, ptr noundef @__func__.delete_file, ptr noundef @.str.351, i32 noundef 2463, ptr noundef @.str.352, ptr noundef %23, ptr noundef %24, ptr noundef @.str.353)
  br label %26

26:                                               ; preds = %21, %20
  store i32 0, ptr %3, align 4
  br label %28

27:                                               ; preds = %13, %9
  store i32 1, ptr %3, align 4
  br label %28

28:                                               ; preds = %27, %26, %8
  %29 = load i32, ptr %3, align 4
  ret i32 %29
}