; Function Attrs: nounwind uwtable
define internal fastcc range(i32 0, 2) i32 @delete_file(ptr noundef %0, ptr noundef %1) unnamed_addr #0 {
  %3 = icmp eq ptr %0, null
  br i1 %3, label %15, label %4

4:                                                ; preds = %2
  %5 = tail call i32 @unlink(ptr noundef nonnull %0) #12
  %.not = icmp eq i32 %5, 0
  br i1 %.not, label %15, label %6

6:                                                ; preds = %4
  %7 = tail call ptr @__errno_location() #15
  %8 = load i32, ptr %7, align 4, !tbaa !10
  %.not5 = icmp eq i32 %8, 2
  br i1 %.not5, label %15, label %9

9:                                                ; preds = %6
  %10 = load i32, ptr @opt_verbosity, align 4, !tbaa !10
  %11 = icmp slt i32 %10, 3
  br i1 %11, label %15, label %12

12:                                               ; preds = %9
  %13 = load ptr, ptr @bio_err, align 8, !tbaa !12
  %14 = tail call i32 (ptr, ptr, ...) @BIO_printf(ptr noundef %13, ptr noundef nonnull @.str.630, ptr noundef nonnull @__func__.delete_file, ptr noundef nonnull @.str.351, i32 noundef 2463, ptr noundef nonnull @.str.352, ptr noundef nonnull %0, ptr noundef %1, ptr noundef nonnull @.str.353) #12
  br label %15

15:                                               ; preds = %4, %6, %12, %9, %2
  %.0 = phi i32 [ 1, %2 ], [ 0, %9 ], [ 0, %12 ], [ 1, %6 ], [ 1, %4 ]
  ret i32 %.0
}